target datalayout = "e-m:e-p270:32:32-p271:32:32-p272:64:64-i64:64-i128:128-f80:128-n8:16:32:64-S128"
target triple = "x86_64-pc-linux-gnu"

%struct.zbee_security_packet = type { i8, i32, i64, i8, i8, i8, i32 }

; Function Attrs: nounwind uwtable
define internal void @phtole32(ptr noundef %0, i32 noundef %1) #0 {
  %3 = alloca ptr, align 8
  %4 = alloca i32, align 4
  store ptr %0, ptr %3, align 8
  store i32 %1, ptr %4, align 4
  %5 = load i32, ptr %4, align 4
  %6 = lshr i32 %5, 0
  %7 = trunc i32 %6 to i8
  %8 = load ptr, ptr %3, align 8
  %9 = getelementptr i8, ptr %8, i64 0
  store i8 %7, ptr %9, align 1
  %10 = load i32, ptr %4, align 4
  %11 = lshr i32 %10, 8
  %12 = trunc i32 %11 to i8
  %13 = load ptr, ptr %3, align 8
  %14 = getelementptr i8, ptr %13, i64 1
  store i8 %12, ptr %14, align 1
  %15 = load i32, ptr %4, align 4
  %16 = lshr i32 %15, 16
  %17 = trunc i32 %16 to i8
  %18 = load ptr, ptr %3, align 8
  %19 = getelementptr i8, ptr %18, i64 2
  store i8 %17, ptr %19, align 1
  %20 = load i32, ptr %4, align 4
  %21 = lshr i32 %20, 24
  %22 = trunc i32 %21 to i8
  %23 = load ptr, ptr %3, align 8
  %24 = getelementptr i8, ptr %23, i64 3
  store i8 %22, ptr %24, align 1
  ret void
}

; Function Attrs: nounwind uwtable
define internal void @phtole64(ptr noundef %0, i64 noundef %1) #0 {
  %3 = alloca ptr, align 8
  %4 = alloca i64, align 8
  store ptr %0, ptr %3, align 8
  store i64 %1, ptr %4, align 8
  %5 = load i64, ptr %4, align 8
  %6 = lshr i64 %5, 0
  %7 = trunc i64 %6 to i8
  %8 = load ptr, ptr %3, align 8
  %9 = getelementptr i8, ptr %8, i64 0
  store i8 %7, ptr %9, align 1
  %10 = load i64, ptr %4, align 8
  %11 = lshr i64 %10, 8
  %12 = trunc i64 %11 to i8
  %13 = load ptr, ptr %3, align 8
  %14 = getelementptr i8, ptr %13, i64 1
  store i8 %12, ptr %14, align 1
  %15 = load i64, ptr %4, align 8
  %16 = lshr i64 %15, 16
  %17 = trunc i64 %16 to i8
  %18 = load ptr, ptr %3, align 8
  %19 = getelementptr i8, ptr %18, i64 2
  store i8 %17, ptr %19, align 1
  %20 = load i64, ptr %4, align 8
  %21 = lshr i64 %20, 24
  %22 = trunc i64 %21 to i8
  %23 = load ptr, ptr %3, align 8
  %24 = getelementptr i8, ptr %23, i64 3
  store i8 %22, ptr %24, align 1
  %25 = load i64, ptr %4, align 8
  %26 = lshr i64 %25, 32
  %27 = trunc i64 %26 to i8
  %28 = load ptr, ptr %3, align 8
  %29 = getelementptr i8, ptr %28, i64 4
  store i8 %27, ptr %29, align 1
  %30 = load i64, ptr %4, align 8
  %31 = lshr i64 %30, 40
  %32 = trunc i64 %31 to i8
  %33 = load ptr, ptr %3, align 8
  %34 = getelementptr i8, ptr %33, i64 5
  store i8 %32, ptr %34, align 1
  %35 = load i64, ptr %4, align 8
  %36 = lshr i64 %35, 48
  %37 = trunc i64 %36 to i8
  %38 = load ptr, ptr %3, align 8
  %39 = getelementptr i8, ptr %38, i64 6
  store i8 %37, ptr %39, align 1
  %40 = load i64, ptr %4, align 8
  %41 = lshr i64 %40, 56
  %42 = trunc i64 %41 to i8
  %43 = load ptr, ptr %3, align 8
  %44 = getelementptr i8, ptr %43, i64 7
  store i8 %42, ptr %44, align 1
  ret void
}

; Function Attrs: nounwind uwtable
define internal void @zbee_sec_make_nonce(ptr noundef %0, ptr noundef %1) #0 {
  %3 = alloca ptr, align 8
  %4 = alloca ptr, align 8
  store ptr %0, ptr %3, align 8
  store ptr %1, ptr %4, align 8
  %5 = load ptr, ptr %4, align 8
  %6 = load ptr, ptr %3, align 8
  %7 = getelementptr inbounds %struct.zbee_security_packet, ptr %6, i32 0, i32 2
  %8 = load i64, ptr %7, align 8
  call void @phtole64(ptr noundef %5, i64 noundef %8)
  %9 = load ptr, ptr %4, align 8
  %10 = getelementptr i8, ptr %9, i64 8
  store ptr %10, ptr %4, align 8
  %11 = load ptr, ptr %4, align 8
  %12 = load ptr, ptr %3, align 8
  %13 = getelementptr inbounds %struct.zbee_security_packet, ptr %12, i32 0, i32 1
  %14 = load i32, ptr %13, align 4
  call void @phtole32(ptr noundef %11, i32 noundef %14)
  %15 = load ptr, ptr %4, align 8
  %16 = getelementptr i8, ptr %15, i64 4
  store ptr %16, ptr %4, align 8
  %17 = load ptr, ptr %3, align 8
  %18 = getelementptr inbounds %struct.zbee_security_packet, ptr %17, i32 0, i32 0
  %19 = load i8, ptr %18, align 8
  %20 = load ptr, ptr %4, align 8
  store i8 %19, ptr %20, align 1
  ret void
}

; Function Attrs: nounwind uwtable
define internal void @zbee_sec_key_hash(ptr noundef %0, i8 noundef zeroext %1, ptr noundef %2) #0 {
  %4 = alloca ptr, align 8
  %5 = alloca i8, align 1
  %6 = alloca ptr, align 8
  %7 = alloca [32 x i8], align 16
  %8 = alloca i32, align 4
  store ptr %0, ptr %4, align 8
  store i8 %1, ptr %5, align 1
  store ptr %2, ptr %6, align 8
  store i32 0, ptr %8, align 4
  br label %9

9:                                                ; preds = %24, %3
  %10 = load i32, ptr %8, align 4
  %11 = icmp slt i32 %10, 16
  br i1 %11, label %12, label %27

12:                                               ; preds = %9
  %13 = load ptr, ptr %4, align 8
  %14 = load i32, ptr %8, align 4
  %15 = sext i32 %14 to i64
  %16 = getelementptr i8, ptr %13, i64 %15
  %17 = load i8, ptr %16, align 1
  %18 = zext i8 %17 to i32
  %19 = xor i32 %18, 92
  %20 = trunc i32 %19 to i8
  %21 = load i32, ptr %8, align 4
  %22 = sext i32 %21 to i64
  %23 = getelementptr [32 x i8], ptr %7, i64 0, i64 %22
  store i8 %20, ptr %23, align 1
  br label %24

24:                                               ; preds = %12
  %25 = load i32, ptr %8, align 4
  %26 = add i32 %25, 1
  store i32 %26, ptr %8, align 4
  br label %9, !llvm.loop !16

27:                                               ; preds = %9
  store i32 0, ptr %8, align 4
  br label %28

28:                                               ; preds = %44, %27
  %29 = load i32, ptr %8, align 4
  %30 = icmp slt i32 %29, 16
  br i1 %30, label %31, label %47

31:                                               ; preds = %28
  %32 = load ptr, ptr %4, align 8
  %33 = load i32, ptr %8, align 4
  %34 = sext i32 %33 to i64
  %35 = getelementptr i8, ptr %32, i64 %34
  %36 = load i8, ptr %35, align 1
  %37 = zext i8 %36 to i32
  %38 = xor i32 %37, 54
  %39 = trunc i32 %38 to i8
  %40 = load ptr, ptr %6, align 8
  %41 = load i32, ptr %8, align 4
  %42 = sext i32 %41 to i64
  %43 = getelementptr i8, ptr %40, i64 %42
  store i8 %39, ptr %43, align 1
  br label %44

44:                                               ; preds = %31
  %45 = load i32, ptr %8, align 4
  %46 = add i32 %45, 1
  store i32 %46, ptr %8, align 4
  br label %28, !llvm.loop !17

47:                                               ; preds = %28
  %48 = load i8, ptr %5, align 1
  %49 = load ptr, ptr %6, align 8
  %50 = getelementptr i8, ptr %49, i64 16
  store i8 %48, ptr %50, align 1
  %51 = load ptr, ptr %6, align 8
  %52 = getelementptr inbounds [32 x i8], ptr %7, i64 0, i64 0
  %53 = getelementptr i8, ptr %52, i64 16
  call void @zbee_sec_hash(ptr noundef %51, i32 noundef 17, ptr noundef %53)
  %54 = getelementptr inbounds [32 x i8], ptr %7, i64 0, i64 0
  %55 = load ptr, ptr %6, align 8
  call void @zbee_sec_hash(ptr noundef %54, i32 noundef 32, ptr noundef %55)
  ret void
}

; Function Attrs: nounwind uwtable
define internal i32 @zbee_sec_decrypt_payload(ptr noundef %0, ptr noundef %1, i8 noundef signext %2, ptr noundef %3, i32 noundef %4, i32 noundef %5, ptr noundef %6) #0 {
  %8 = alloca i32, align 4
  %9 = alloca ptr, align 8
  %10 = alloca ptr, align 8
  %11 = alloca i8, align 1
  %12 = alloca ptr, align 8
  %13 = alloca i32, align 4
  %14 = alloca i32, align 4
  %15 = alloca ptr, align 8
  %16 = alloca [13 x i8], align 1
  %17 = alloca [17 x i8], align 16
  %18 = alloca ptr, align 8
  store ptr %0, ptr %9, align 8
  store ptr %1, ptr %10, align 8
  store i8 %2, ptr %11, align 1
  store ptr %3, ptr %12, align 8
  store i32 %4, ptr %13, align 4
  store i32 %5, ptr %14, align 4
  store ptr %6, ptr %15, align 8
  %19 = getelementptr inbounds [17 x i8], ptr %17, i64 0, i64 0
  store ptr %19, ptr %18, align 8
  %20 = load ptr, ptr %9, align 8
  %21 = getelementptr inbounds %struct.zbee_security_packet, ptr %20, i32 0, i32 5
  %22 = load i8, ptr %21, align 2
  %23 = zext i8 %22 to i32
  switch i32 %23, label %34 [
    i32 1, label %24
    i32 0, label %24
    i32 2, label %26
    i32 3, label %30
  ]

24:                                               ; preds = %7, %7
  %25 = load ptr, ptr %15, align 8
  store ptr %25, ptr %18, align 8
  br label %35

26:                                               ; preds = %7
  %27 = load ptr, ptr %15, align 8
  %28 = getelementptr inbounds [17 x i8], ptr %17, i64 0, i64 0
  call void @zbee_sec_key_hash(ptr noundef %27, i8 noundef zeroext 0, ptr noundef %28)
  %29 = getelementptr inbounds [17 x i8], ptr %17, i64 0, i64 0
  store ptr %29, ptr %18, align 8
  br label %35

30:                                               ; preds = %7
  %31 = load ptr, ptr %15, align 8
  %32 = getelementptr inbounds [17 x i8], ptr %17, i64 0, i64 0
  call void @zbee_sec_key_hash(ptr noundef %31, i8 noundef zeroext 2, ptr noundef %32)
  %33 = getelementptr inbounds [17 x i8], ptr %17, i64 0, i64 0
  store ptr %33, ptr %18, align 8
  br label %35

34:                                               ; preds = %7
  br label %35

35:                                               ; preds = %34, %30, %26, %24
  %36 = load ptr, ptr %9, align 8
  %37 = getelementptr inbounds [13 x i8], ptr %16, i64 0, i64 0
  call void @zbee_sec_make_nonce(ptr noundef %36, ptr noundef %37)
  %38 = load ptr, ptr %18, align 8
  %39 = getelementptr inbounds [13 x i8], ptr %16, i64 0, i64 0
  %40 = load ptr, ptr %10, align 8
  %41 = load ptr, ptr %10, align 8
  %42 = load i8, ptr %11, align 1
  %43 = sext i8 %42 to i32
  %44 = sext i32 %43 to i64
  %45 = getelementptr i8, ptr %41, i64 %44
  %46 = load ptr, ptr %12, align 8
  %47 = load i8, ptr %11, align 1
  %48 = sext i8 %47 to i32
  %49 = load i32, ptr %13, align 4
  %50 = load i32, ptr %14, align 4
  %51 = call i32 @zbee_sec_ccm_decrypt(ptr noundef %38, ptr noundef %39, ptr noundef %40, ptr noundef %45, ptr noundef %46, i32 noundef %48, i32 noundef %49, i32 noundef %50)
  %52 = icmp ne i32 %51, 0
  br i1 %52, label %53, label %54

53:                                               ; preds = %35
  store i32 1, ptr %8, align 4
  br label %55

54:                                               ; preds = %35
  store i32 0, ptr %8, align 4
  br label %55

55:                                               ; preds = %54, %53
  %56 = load i32, ptr %8, align 4
  ret i32 %56
}