; Function Attrs: nounwind uwtable
define internal fastcc range(i32 0, 2) i32 @zbee_sec_decrypt_payload(ptr noundef nonnull readonly captures(none) %0, ptr noundef %1, i8 noundef signext %2, ptr noundef %3, i32 noundef range(i32 1, 0) %4, i32 noundef range(i32 0, 17) %5, ptr noundef %6) unnamed_addr #0 {
  %8 = alloca [32 x i8], align 16
  %9 = alloca [32 x i8], align 16
  %10 = alloca [13 x i8], align 1
  %11 = alloca [17 x i8], align 16
  %12 = getelementptr inbounds nuw i8, ptr %0, i64 18
  %13 = load i8, ptr %12, align 2
  switch i8 %13, label %39 [
    i8 1, label %14
    i8 0, label %14
    i8 2, label %15
    i8 3, label %27
  ]

14:                                               ; preds = %7, %7
  br label %39

15:                                               ; preds = %7
  call void @llvm.lifetime.start.p0(i64 32, ptr nonnull %9)
  br label %16

16:                                               ; preds = %16, %15
  %indvars.iv.i = phi i64 [ 0, %15 ], [ %indvars.iv.next.i, %16 ]
  %17 = getelementptr i8, ptr %6, i64 %indvars.iv.i
  %18 = load i8, ptr %17, align 1
  %19 = xor i8 %18, 92
  %20 = getelementptr [32 x i8], ptr %9, i64 0, i64 %indvars.iv.i
  store i8 %19, ptr %20, align 1
  %indvars.iv.next.i = add nuw nsw i64 %indvars.iv.i, 1
  %exitcond.not.i = icmp eq i64 %indvars.iv.next.i, 16
  br i1 %exitcond.not.i, label %.preheader.i, label %16, !llvm.loop !10

.preheader.i:                                     ; preds = %16, %.preheader.i
  %indvars.iv17.i = phi i64 [ %indvars.iv.next18.i, %.preheader.i ], [ 0, %16 ]
  %21 = getelementptr i8, ptr %6, i64 %indvars.iv17.i
  %22 = load i8, ptr %21, align 1
  %23 = xor i8 %22, 54
  %24 = getelementptr i8, ptr %11, i64 %indvars.iv17.i
  store i8 %23, ptr %24, align 1
  %indvars.iv.next18.i = add nuw nsw i64 %indvars.iv17.i, 1
  %exitcond20.not.i = icmp eq i64 %indvars.iv.next18.i, 16
  br i1 %exitcond20.not.i, label %zbee_sec_key_hash.exit, label %.preheader.i, !llvm.loop !11

zbee_sec_key_hash.exit:                           ; preds = %.preheader.i
  %25 = getelementptr inbounds nuw i8, ptr %11, i64 16
  store i8 0, ptr %25, align 16
  %26 = getelementptr inbounds nuw i8, ptr %9, i64 16
  call fastcc void @zbee_sec_hash(ptr noundef nonnull %11, i32 noundef 17, ptr noundef nonnull %26)
  call fastcc void @zbee_sec_hash(ptr noundef %9, i32 noundef 32, ptr noundef nonnull %11)
  call void @llvm.lifetime.end.p0(i64 32, ptr nonnull %9)
  br label %39

27:                                               ; preds = %7
  call void @llvm.lifetime.start.p0(i64 32, ptr nonnull %8)
  br label %28

28:                                               ; preds = %28, %27
  %indvars.iv.i14 = phi i64 [ 0, %27 ], [ %indvars.iv.next.i15, %28 ]
  %29 = getelementptr i8, ptr %6, i64 %indvars.iv.i14
  %30 = load i8, ptr %29, align 1
  %31 = xor i8 %30, 92
  %32 = getelementptr [32 x i8], ptr %8, i64 0, i64 %indvars.iv.i14
  store i8 %31, ptr %32, align 1
  %indvars.iv.next.i15 = add nuw nsw i64 %indvars.iv.i14, 1
  %exitcond.not.i16 = icmp eq i64 %indvars.iv.next.i15, 16
  br i1 %exitcond.not.i16, label %.preheader.i17, label %28, !llvm.loop !10

.preheader.i17:                                   ; preds = %28, %.preheader.i17
  %indvars.iv17.i18 = phi i64 [ %indvars.iv.next18.i19, %.preheader.i17 ], [ 0, %28 ]
  %33 = getelementptr i8, ptr %6, i64 %indvars.iv17.i18
  %34 = load i8, ptr %33, align 1
  %35 = xor i8 %34, 54
  %36 = getelementptr i8, ptr %11, i64 %indvars.iv17.i18
  store i8 %35, ptr %36, align 1
  %indvars.iv.next18.i19 = add nuw nsw i64 %indvars.iv17.i18, 1
  %exitcond20.not.i20 = icmp eq i64 %indvars.iv.next18.i19, 16
  br i1 %exitcond20.not.i20, label %zbee_sec_key_hash.exit21, label %.preheader.i17, !llvm.loop !11

zbee_sec_key_hash.exit21:                         ; preds = %.preheader.i17
  %37 = getelementptr inbounds nuw i8, ptr %11, i64 16
  store i8 2, ptr %37, align 16
  %38 = getelementptr inbounds nuw i8, ptr %8, i64 16
  call fastcc void @zbee_sec_hash(ptr noundef nonnull %11, i32 noundef 17, ptr noundef nonnull %38)
  call fastcc void @zbee_sec_hash(ptr noundef %8, i32 noundef 32, ptr noundef nonnull %11)
  call void @llvm.lifetime.end.p0(i64 32, ptr nonnull %8)
  br label %39

39:                                               ; preds = %7, %zbee_sec_key_hash.exit21, %zbee_sec_key_hash.exit, %14
  %.0 = phi ptr [ %11, %7 ], [ %11, %zbee_sec_key_hash.exit21 ], [ %11, %zbee_sec_key_hash.exit ], [ %6, %14 ]
  %40 = getelementptr inbounds nuw i8, ptr %0, i64 8
  %41 = load i64, ptr %40, align 8
  %42 = trunc i64 %41 to i8
  store i8 %42, ptr %10, align 1
  %43 = lshr i64 %41, 8
  %44 = trunc i64 %43 to i8
  %45 = getelementptr inbounds nuw i8, ptr %10, i64 1
  store i8 %44, ptr %45, align 1
  %46 = lshr i64 %41, 16
  %47 = trunc i64 %46 to i8
  %48 = getelementptr inbounds nuw i8, ptr %10, i64 2
  store i8 %47, ptr %48, align 1
  %49 = lshr i64 %41, 24
  %50 = trunc i64 %49 to i8
  %51 = getelementptr inbounds nuw i8, ptr %10, i64 3
  store i8 %50, ptr %51, align 1
  %52 = lshr i64 %41, 32
  %53 = trunc i64 %52 to i8
  %54 = getelementptr inbounds nuw i8, ptr %10, i64 4
  store i8 %53, ptr %54, align 1
  %55 = lshr i64 %41, 40
  %56 = trunc i64 %55 to i8
  %57 = getelementptr inbounds nuw i8, ptr %10, i64 5
  store i8 %56, ptr %57, align 1
  %58 = lshr i64 %41, 48
  %59 = trunc i64 %58 to i8
  %60 = getelementptr inbounds nuw i8, ptr %10, i64 6
  store i8 %59, ptr %60, align 1
  %61 = lshr i64 %41, 56
  %62 = trunc nuw i64 %61 to i8
  %63 = getelementptr inbounds nuw i8, ptr %10, i64 7
  store i8 %62, ptr %63, align 1
  %64 = getelementptr inbounds nuw i8, ptr %10, i64 8
  %65 = getelementptr inbounds nuw i8, ptr %0, i64 4
  %66 = load i32, ptr %65, align 4
  %67 = trunc i32 %66 to i8
  store i8 %67, ptr %64, align 1
  %68 = lshr i32 %66, 8
  %69 = trunc i32 %68 to i8
  %70 = getelementptr inbounds nuw i8, ptr %10, i64 9
  store i8 %69, ptr %70, align 1
  %71 = lshr i32 %66, 16
  %72 = trunc i32 %71 to i8
  %73 = getelementptr inbounds nuw i8, ptr %10, i64 10
  store i8 %72, ptr %73, align 1
  %74 = lshr i32 %66, 24
  %75 = trunc nuw i32 %74 to i8
  %76 = getelementptr inbounds nuw i8, ptr %10, i64 11
  store i8 %75, ptr %76, align 1
  %77 = getelementptr inbounds nuw i8, ptr %10, i64 12
  %78 = load i8, ptr %0, align 8
  store i8 %78, ptr %77, align 1
  %79 = sext i8 %2 to i32
  %80 = sext i8 %2 to i64
  %81 = getelementptr i8, ptr %1, i64 %80
  %82 = call i32 @zbee_sec_ccm_decrypt(ptr noundef %.0, ptr noundef nonnull %10, ptr noundef %1, ptr noundef %81, ptr noundef %3, i32 noundef %79, i32 noundef %4, i32 noundef %5)
  ret i32 %82
}